(lp0
I4464
aI4465
aI4466
aI4467
aI4469
aI11156
aI11357
aI11359
aI11446
aI11460
aI4471
aI4472
aI4473
aI4565
aI4568
aI11150
aI4570
aI4571
aI4576
aI4572
aI4574
aI18123
aI18406
aI18407
aI18408
aI18409
aI18410
aI18412
aI19519
aI19520
aI19521
aI19522
aI19538
aI19539
aI19540
aI19541
aI19542
aI2139
aI2275
aI2274
aI2276
aI2277
aI2281
aI2282
aI2283
aI2284
aI2155
aI2545
aI2550
aI2551
aI2552
aI2553
aI15499
aI15500
aI15641
aI15509
aI15504
aI15629
aI15670
aI16029
aI16028
aI16027
aI16169
aI16170
aI16171
aI16547
aI15438
aI15436
aI15468
aI15470
aI15476
aI15510
aI16087
aI16172
aI16177
aI16458
aI15643
aI16491
aI16492
aI16493
aI16494
aI16497
aI16499
aI2162
aI2164
aI2165
aI2167
aI2185
aI2186
aI2187
aI2188
aI2190
aI2198
a.